; ModuleID = '24/86.c'
source_filename = "24/86.c"
target datalayout = "e-m:e-p270:32:32-p271:32:32-p272:64:64-i64:64-f80:128-n8:16:32:64-S128"
target triple = "x86_64-pc-linux-gnu"

@__const.main.Min_word = private unnamed_addr constant [40 x i8] c"afwefjaklwejfioajwe\00\00\00\00\00\00\00\00\00\00\00\00\00\00\00\00\00\00\00\00\00", align 16
@.str = private unnamed_addr constant [3 x i8] c"%s\00", align 1

; Function Attrs: noinline nounwind uwtable
define dso_local void @main() #0 {
  %1 = alloca i32, align 4
  %2 = alloca i32, align 4
  %3 = alloca [40 x i8], align 16
  %4 = alloca [40 x i8], align 16
  %5 = alloca [40 x i8], align 16
  %6 = bitcast [40 x i8]* %4 to i8*
  call void @llvm.memset.p0i8.i64(i8* align 16 %6, i8 0, i64 40, i1 false)
  %7 = bitcast [40 x i8]* %5 to i8*
  call void @llvm.memcpy.p0i8.p0i8.i64(i8* align 16 %7, i8* align 16 getelementptr inbounds ([40 x i8], [40 x i8]* @__const.main.Min_word, i32 0, i32 0), i64 40, i1 false)
  br label %8

8:                                                ; preds = %31, %0
  %9 = getelementptr inbounds [40 x i8], [40 x i8]* %3, i64 0, i64 0
  %10 = call i32 (i8*, ...) @__isoc99_scanf(i8* getelementptr inbounds ([3 x i8], [3 x i8]* @.str, i64 0, i64 0), i8* %9)
  %11 = getelementptr inbounds [40 x i8], [40 x i8]* %3, i64 0, i64 0
  %12 = call i64 @strlen(i8* %11) #5
  %13 = getelementptr inbounds [40 x i8], [40 x i8]* %4, i64 0, i64 0
  %14 = call i64 @strlen(i8* %13) #5
  %15 = icmp ugt i64 %12, %14
  br i1 %15, label %16, label %20

16:                                               ; preds = %8
  %17 = getelementptr inbounds [40 x i8], [40 x i8]* %4, i64 0, i64 0
  %18 = getelementptr inbounds [40 x i8], [40 x i8]* %3, i64 0, i64 0
  %19 = call i8* @strcpy(i8* %17, i8* %18) #6
  br label %20

20:                                               ; preds = %16, %8
  %21 = getelementptr inbounds [40 x i8], [40 x i8]* %3, i64 0, i64 0
  %22 = call i64 @strlen(i8* %21) #5
  %23 = getelementptr inbounds [40 x i8], [40 x i8]* %5, i64 0, i64 0
  %24 = call i64 @strlen(i8* %23) #5
  %25 = icmp ult i64 %22, %24
  br i1 %25, label %26, label %30

26:                                               ; preds = %20
  %27 = getelementptr inbounds [40 x i8], [40 x i8]* %5, i64 0, i64 0
  %28 = getelementptr inbounds [40 x i8], [40 x i8]* %3, i64 0, i64 0
  %29 = call i8* @strcpy(i8* %27, i8* %28) #6
  br label %30

30:                                               ; preds = %26, %20
  br label %31

31:                                               ; preds = %30
  %32 = call i32 @getchar()
  %33 = icmp ne i32 %32, 10
  br i1 %33, label %8, label %34

34:                                               ; preds = %31
  %35 = getelementptr inbounds [40 x i8], [40 x i8]* %4, i64 0, i64 0
  %36 = call i32 @puts(i8* %35)
  %37 = getelementptr inbounds [40 x i8], [40 x i8]* %5, i64 0, i64 0
  %38 = call i32 @puts(i8* %37)
  ret void
}

; Function Attrs: argmemonly nounwind willreturn
declare void @llvm.memset.p0i8.i64(i8* nocapture writeonly, i8, i64, i1 immarg) #1

; Function Attrs: argmemonly nounwind willreturn
declare void @llvm.memcpy.p0i8.p0i8.i64(i8* noalias nocapture writeonly, i8* noalias nocapture readonly, i64, i1 immarg) #1

declare dso_local i32 @__isoc99_scanf(i8*, ...) #2

; Function Attrs: nounwind readonly
declare dso_local i64 @strlen(i8*) #3

; Function Attrs: nounwind
declare dso_local i8* @strcpy(i8*, i8*) #4

declare dso_local i32 @getchar() #2

declare dso_local i32 @puts(i8*) #2


!llvm.module.flags = !{!0}
!llvm.ident = !{!1}

!0 = !{i32 1, !"wchar_size", i32 4}
!1 = !{!"clang version 10.0.0-4ubuntu1 "}
